; Function Attrs: mustprogress uwtable
define hidden void @_Z21collect_selstore_varsP4exprR13obj_hashtableI3appER11ast_manager(ptr noundef %0, ptr noundef nonnull align 8 dereferenceable(20) %1, ptr noundef nonnull align 8 dereferenceable(976) %2) local_unnamed_addr #3 personality ptr @__gxx_personality_v0 {
  %4 = alloca %class.ast_fast_mark, align 8
  %5 = alloca %"struct.collect_selstore_vars_ns::proc", align 8
  call void @llvm.lifetime.start.p0(i64 56, ptr nonnull %5) #14
  store ptr %2, ptr %5, align 8, !tbaa !17
  %6 = getelementptr inbounds nuw i8, ptr %5, i64 8
  store ptr %1, ptr %6, align 8, !tbaa !6
  %7 = getelementptr inbounds nuw i8, ptr %5, i64 16
  call void @_ZN10array_utilC1ER11ast_manager(ptr noundef nonnull align 8 dereferenceable(16) %7, ptr noundef nonnull align 8 dereferenceable(976) %2)
  %8 = getelementptr inbounds nuw i8, ptr %5, i64 32
  %9 = load ptr, ptr %5, align 8, !tbaa !49
  call void @_ZN8datatype4utilC1ER11ast_manager(ptr noundef nonnull align 8 dereferenceable(24) %8, ptr noundef nonnull align 8 dereferenceable(976) %9)
  call void @llvm.lifetime.start.p0(i64 144, ptr nonnull %4) #14
  %10 = getelementptr inbounds nuw i8, ptr %4, i64 16
  store ptr %10, ptr %4, align 8, !tbaa !55
  %11 = getelementptr inbounds nuw i8, ptr %4, i64 8
  store i32 0, ptr %11, align 8, !tbaa !58
  %12 = getelementptr inbounds nuw i8, ptr %4, i64 12
  store i32 16, ptr %12, align 4, !tbaa !59
  invoke void @_Z18for_each_expr_coreIN24collect_selstore_vars_ns4procE13ast_fast_markILj1EELb0ELb0EEvRT_RT0_P4expr(ptr noundef nonnull align 8 dereferenceable(56) %5, ptr noundef nonnull align 8 dereferenceable(144) %4, ptr noundef %0)
          to label %13 unwind label %29

13:                                               ; preds = %3
  %14 = load ptr, ptr %4, align 8, !tbaa !55
  %15 = load i32, ptr %11, align 8, !tbaa !58
  %16 = zext i32 %15 to i64
  %17 = getelementptr inbounds nuw ptr, ptr %14, i64 %16
  %.not8.i.i.i = icmp eq i32 %15, 0
  br i1 %.not8.i.i.i, label %.loopexit.i.i, label %.lr.ph.i.i.i

.lr.ph.i.i.i:                                     ; preds = %13, %.lr.ph.i.i.i
  %.09.i.i.i = phi ptr [ %22, %.lr.ph.i.i.i ], [ %14, %13 ]
  %18 = load ptr, ptr %.09.i.i.i, align 8, !tbaa !60
  %19 = getelementptr inbounds nuw i8, ptr %18, i64 4
  %20 = load i32, ptr %19, align 4
  %21 = and i32 %20, -65537
  store i32 %21, ptr %19, align 4
  %22 = getelementptr inbounds nuw i8, ptr %.09.i.i.i, i64 8
  %.not.i.i.i = icmp eq ptr %22, %17
  br i1 %.not.i.i.i, label %.loopexit.loopexit.i.i, label %.lr.ph.i.i.i

.loopexit.loopexit.i.i:                           ; preds = %.lr.ph.i.i.i
  %.pre.i.i = load ptr, ptr %4, align 8, !tbaa !55
  br label %.loopexit.i.i

.loopexit.i.i:                                    ; preds = %.loopexit.loopexit.i.i, %13
  %23 = phi ptr [ %.pre.i.i, %.loopexit.loopexit.i.i ], [ %14, %13 ]
  store i32 0, ptr %11, align 8, !tbaa !58
  %.not.i.i.i.i.i = icmp eq ptr %23, %10
  %24 = icmp eq ptr %23, null
  %or.cond.i.i.i.i.i = or i1 %.not.i.i.i.i.i, %24
  br i1 %or.cond.i.i.i.i.i, label %_Z19quick_for_each_exprIN24collect_selstore_vars_ns4procEEvRT_P4expr.exit, label %25

25:                                               ; preds = %.loopexit.i.i
  invoke void @_ZN6memory10deallocateEPv(ptr noundef nonnull %23)
          to label %_Z19quick_for_each_exprIN24collect_selstore_vars_ns4procEEvRT_P4expr.exit unwind label %26

26:                                               ; preds = %25
  %27 = landingpad { ptr, i32 }
          catch ptr null
  %28 = extractvalue { ptr, i32 } %27, 0
  call void @__clang_call_terminate(ptr %28) #15
  unreachable

29:                                               ; preds = %3
  %30 = landingpad { ptr, i32 }
          cleanup
  call void @_ZN13ast_fast_markILj1EED2Ev(ptr noundef nonnull align 8 dereferenceable(144) %4) #14
  call void @llvm.lifetime.end.p0(i64 144, ptr nonnull %4) #14
  resume { ptr, i32 } %30

_Z19quick_for_each_exprIN24collect_selstore_vars_ns4procEEvRT_P4expr.exit: ; preds = %.loopexit.i.i, %25
  call void @llvm.lifetime.end.p0(i64 144, ptr nonnull %4) #14
  call void @llvm.lifetime.end.p0(i64 56, ptr nonnull %5) #14
  ret void
}